(dp0
S'welcome'
p1
((lp2
S'name'
p3
a(lp4
(S', to IRCx, a place of joy.'
p5
I0
tp6
a(S'name'
p7
I2
tp8
a(S'Welcome, '
p9
I0
tp10
a(S'add'
p11
I3
tp12
a(S'add'
p13
I3
tp14
atp15
sS'title'
p16
((lp17
S'site'
p18
a(lp19
(I0
I1
tp20
a(S'site'
p21
I2
tp22
a(S'get'
p23
I3
tp24
a(S'<title>(.*)</title>'
p25
I0
tp26
a(S'grepi'
p27
I3
tp28
atp29
s.