(dp0
S'fail'
p1
((lp2
S'x'
p3
a(lp4
(S" is a fail, I'm sorry. "
p5
I0
tp6
a(g3
I2
tp7
a(S'add'
p8
I3
tp9
atp10
sS'welcome'
p11
((lp12
S'name'
p13
a(lp14
(S", to IRCx, a place of joy (unless you're using clearnet.)"
p15
I0
tp16
a(S'name'
p17
I2
tp18
a(S'Welcome ,'
p19
I0
tp20
a(S'add'
p21
I3
tp22
a(S'add'
p23
I3
tp24
atp25
sS'ping'
p26
((lp27
(lp28
(S'pong'
p29
I0
tp30
a(S'id'
p31
I3
tp32
atp33
sS'help'
p34
((lp35
(lp36
(S'Just lrn2code dude.'
p37
I0
tp38
a(S'id'
p39
I3
tp40
atp41
sS'title'
p42
((lp43
S'site'
p44
a(lp45
(I0
I1
tp46
a(S'site'
p47
I2
tp48
a(S'get'
p49
I3
tp50
a(S'<title>(.*)</title>'
p51
I0
tp52
a(S'grepi'
p53
I3
tp54
atp55
s.